; Function Attrs: mustprogress uwtable
define hidden void @_ZN4cvc58internal6theory11quantifiers17TheoryQuantifiers18ppNotifyAssertionsERKSt6vectorINS0_12NodeTemplateILb1EEESaIS6_EE(ptr nocapture noundef nonnull readonly align 8 dereferenceable(1776) %this, ptr noundef nonnull align 8 dereferenceable(24) %assertions) unnamed_addr #3 align 2 {
cond.end:
  %d_quantEngine.i = getelementptr inbounds i8, ptr %this, i64 192
  %0 = load ptr, ptr %d_quantEngine.i, align 8
  %tobool.not = icmp eq ptr %0, null
  br i1 %tobool.not, label %if.end, label %if.then

if.then:                                          ; preds = %cond.end
  tail call void @_ZN4cvc58internal6theory17QuantifiersEngine18ppNotifyAssertionsERKSt6vectorINS0_12NodeTemplateILb1EEESaIS5_EE(ptr noundef nonnull align 8 dereferenceable(356) %0, ptr noundef nonnull align 8 dereferenceable(24) %assertions)
  br label %if.end

if.end:                                           ; preds = %if.then, %cond.end
  ret void
}